; Function Attrs: nounwind uwtable
define nonnull ptr @l_Int_Linear_cooper__unsat__cert___boxed(ptr noundef %0, ptr noundef %1, ptr noundef %2, ptr noundef %3, ptr noundef %4, ptr noundef %5) local_unnamed_addr #1 {
  %7 = tail call zeroext i8 @l_Int_Linear_cooper__unsat__cert(ptr noundef %0, ptr noundef %1, ptr noundef %2, ptr noundef %3, ptr noundef %4, ptr noundef %5)
  %8 = ptrtoint ptr %5 to i64
  %9 = and i64 %8, 1
  %.not = icmp eq i64 %9, 0
  br i1 %.not, label %10, label %lean_dec.exit17

10:                                               ; preds = %6
  %11 = load i32, ptr %5, align 4, !tbaa !6
  %12 = icmp sgt i32 %11, 1
  br i1 %12, label %13, label %15, !prof !5

13:                                               ; preds = %10
  %14 = add nsw i32 %11, -1
  store i32 %14, ptr %5, align 4, !tbaa !6
  br label %lean_dec.exit17

15:                                               ; preds = %10
  %.not.i = icmp eq i32 %11, 0
  br i1 %.not.i, label %lean_dec.exit17, label %16

16:                                               ; preds = %15
  tail call void @lean_dec_ref_cold(ptr noundef nonnull %5) #5
  br label %lean_dec.exit17

lean_dec.exit17:                                  ; preds = %16, %15, %13, %6
  %17 = ptrtoint ptr %4 to i64
  %18 = and i64 %17, 1
  %.not28 = icmp eq i64 %18, 0
  br i1 %.not28, label %19, label %lean_dec.exit16

19:                                               ; preds = %lean_dec.exit17
  %20 = load i32, ptr %4, align 4, !tbaa !6
  %21 = icmp sgt i32 %20, 1
  br i1 %21, label %22, label %24, !prof !5

22:                                               ; preds = %19
  %23 = add nsw i32 %20, -1
  store i32 %23, ptr %4, align 4, !tbaa !6
  br label %lean_dec.exit16

24:                                               ; preds = %19
  %.not.i18 = icmp eq i32 %20, 0
  br i1 %.not.i18, label %lean_dec.exit16, label %25

25:                                               ; preds = %24
  tail call void @lean_dec_ref_cold(ptr noundef nonnull %4) #5
  br label %lean_dec.exit16

lean_dec.exit16:                                  ; preds = %25, %24, %22, %lean_dec.exit17
  %26 = ptrtoint ptr %3 to i64
  %27 = and i64 %26, 1
  %.not29 = icmp eq i64 %27, 0
  br i1 %.not29, label %28, label %lean_dec.exit15

28:                                               ; preds = %lean_dec.exit16
  %29 = load i32, ptr %3, align 4, !tbaa !6
  %30 = icmp sgt i32 %29, 1
  br i1 %30, label %31, label %33, !prof !5

31:                                               ; preds = %28
  %32 = add nsw i32 %29, -1
  store i32 %32, ptr %3, align 4, !tbaa !6
  br label %lean_dec.exit15

33:                                               ; preds = %28
  %.not.i20 = icmp eq i32 %29, 0
  br i1 %.not.i20, label %lean_dec.exit15, label %34

34:                                               ; preds = %33
  tail call void @lean_dec_ref_cold(ptr noundef nonnull %3) #5
  br label %lean_dec.exit15

lean_dec.exit15:                                  ; preds = %34, %33, %31, %lean_dec.exit16
  %35 = ptrtoint ptr %2 to i64
  %36 = and i64 %35, 1
  %.not30 = icmp eq i64 %36, 0
  br i1 %.not30, label %37, label %lean_dec.exit14

37:                                               ; preds = %lean_dec.exit15
  %38 = load i32, ptr %2, align 4, !tbaa !6
  %39 = icmp sgt i32 %38, 1
  br i1 %39, label %40, label %42, !prof !5

40:                                               ; preds = %37
  %41 = add nsw i32 %38, -1
  store i32 %41, ptr %2, align 4, !tbaa !6
  br label %lean_dec.exit14

42:                                               ; preds = %37
  %.not.i22 = icmp eq i32 %38, 0
  br i1 %.not.i22, label %lean_dec.exit14, label %43

43:                                               ; preds = %42
  tail call void @lean_dec_ref_cold(ptr noundef nonnull %2) #5
  br label %lean_dec.exit14

lean_dec.exit14:                                  ; preds = %43, %42, %40, %lean_dec.exit15
  %44 = ptrtoint ptr %1 to i64
  %45 = and i64 %44, 1
  %.not31 = icmp eq i64 %45, 0
  br i1 %.not31, label %46, label %lean_dec.exit13

46:                                               ; preds = %lean_dec.exit14
  %47 = load i32, ptr %1, align 4, !tbaa !6
  %48 = icmp sgt i32 %47, 1
  br i1 %48, label %49, label %51, !prof !5

49:                                               ; preds = %46
  %50 = add nsw i32 %47, -1
  store i32 %50, ptr %1, align 4, !tbaa !6
  br label %lean_dec.exit13

51:                                               ; preds = %46
  %.not.i24 = icmp eq i32 %47, 0
  br i1 %.not.i24, label %lean_dec.exit13, label %52

52:                                               ; preds = %51
  tail call void @lean_dec_ref_cold(ptr noundef nonnull %1) #5
  br label %lean_dec.exit13

lean_dec.exit13:                                  ; preds = %52, %51, %49, %lean_dec.exit14
  %53 = ptrtoint ptr %0 to i64
  %54 = and i64 %53, 1
  %.not32 = icmp eq i64 %54, 0
  br i1 %.not32, label %55, label %lean_dec.exit

55:                                               ; preds = %lean_dec.exit13
  %56 = load i32, ptr %0, align 4, !tbaa !6
  %57 = icmp sgt i32 %56, 1
  br i1 %57, label %58, label %60, !prof !5

58:                                               ; preds = %55
  %59 = add nsw i32 %56, -1
  store i32 %59, ptr %0, align 4, !tbaa !6
  br label %lean_dec.exit

60:                                               ; preds = %55
  %.not.i26 = icmp eq i32 %56, 0
  br i1 %.not.i26, label %lean_dec.exit, label %61

61:                                               ; preds = %60
  tail call void @lean_dec_ref_cold(ptr noundef nonnull %0) #5
  br label %lean_dec.exit

lean_dec.exit:                                    ; preds = %61, %60, %58, %lean_dec.exit13
  %62 = shl nuw nsw i8 %7, 1
  %63 = or disjoint i8 %62, 1
  %64 = zext nneg i8 %63 to i64
  %65 = inttoptr i64 %64 to ptr
  ret ptr %65
}